; Function Attrs: mustprogress nounwind uwtable
define hidden void @_ZN19OpenColorIO_v2_5dev9CDLParser4ImplD2Ev(ptr noundef nonnull align 8 dereferenceable(98) %0) unnamed_addr #3 align 2 personality ptr @__gxx_personality_v0 {
  %2 = load ptr, ptr %0, align 8, !tbaa !9
  invoke void @XML_ParserFree(ptr noundef %2)
          to label %3 unwind label %38

3:                                                ; preds = %1
  invoke void @_ZN19OpenColorIO_v2_5dev9CDLParser4Impl5resetEv(ptr noundef nonnull align 8 dereferenceable(98) %0)
          to label %4 unwind label %38

4:                                                ; preds = %3
  %5 = getelementptr inbounds nuw i8, ptr %0, i64 64
  %6 = load ptr, ptr %5, align 8, !tbaa !30
  %7 = getelementptr inbounds nuw i8, ptr %0, i64 80
  %8 = icmp eq ptr %6, %7
  br i1 %8, label %_ZNKSt7__cxx1112basic_stringIcSt11char_traitsIcESaIcEE11_M_is_localEv.exit.thread.i.i, label %_ZNKSt7__cxx1112basic_stringIcSt11char_traitsIcESaIcEE11_M_is_localEv.exit.i.i

_ZNKSt7__cxx1112basic_stringIcSt11char_traitsIcESaIcEE11_M_is_localEv.exit.thread.i.i: ; preds = %4
  %9 = getelementptr inbounds nuw i8, ptr %0, i64 72
  %10 = load i64, ptr %9, align 8, !tbaa !31
  %11 = icmp ult i64 %10, 16
  tail call void @llvm.assume(i1 %11)
  br label %_ZNSt7__cxx1112basic_stringIcSt11char_traitsIcESaIcEED2Ev.exit

_ZNKSt7__cxx1112basic_stringIcSt11char_traitsIcESaIcEE11_M_is_localEv.exit.i.i: ; preds = %4
  %12 = load i64, ptr %7, align 8, !tbaa !33
  %13 = add i64 %12, 1
  tail call void @_ZdlPvm(ptr noundef %6, i64 noundef %13) #31
  br label %_ZNSt7__cxx1112basic_stringIcSt11char_traitsIcESaIcEED2Ev.exit

_ZNSt7__cxx1112basic_stringIcSt11char_traitsIcESaIcEED2Ev.exit: ; preds = %_ZNKSt7__cxx1112basic_stringIcSt11char_traitsIcESaIcEE11_M_is_localEv.exit.thread.i.i, %_ZNKSt7__cxx1112basic_stringIcSt11char_traitsIcESaIcEE11_M_is_localEv.exit.i.i
  %14 = getelementptr inbounds nuw i8, ptr %0, i64 48
  %15 = load ptr, ptr %14, align 8, !tbaa !36
  %.not.i.i = icmp eq ptr %15, null
  br i1 %.not.i.i, label %_ZNSt12__shared_ptrIN19OpenColorIO_v2_5dev14CDLParsingInfoELN9__gnu_cxx12_Lock_policyE2EED2Ev.exit, label %16

16:                                               ; preds = %_ZNSt7__cxx1112basic_stringIcSt11char_traitsIcESaIcEED2Ev.exit
  %17 = getelementptr inbounds nuw i8, ptr %15, i64 8
  %18 = load atomic i64, ptr %17 acquire, align 8
  %19 = icmp eq i64 %18, 4294967297
  %20 = trunc i64 %18 to i32
  br i1 %19, label %21, label %29

21:                                               ; preds = %16
  store i32 0, ptr %17, align 8, !tbaa !37
  %22 = getelementptr inbounds nuw i8, ptr %15, i64 12
  store i32 0, ptr %22, align 4, !tbaa !39
  %23 = load ptr, ptr %15, align 8, !tbaa !40
  %24 = getelementptr inbounds nuw i8, ptr %23, i64 16
  %25 = load ptr, ptr %24, align 8
  tail call void %25(ptr noundef nonnull align 8 dereferenceable(16) %15) #30
  %26 = load ptr, ptr %15, align 8, !tbaa !40
  %27 = getelementptr inbounds nuw i8, ptr %26, i64 24
  %28 = load ptr, ptr %27, align 8
  tail call void %28(ptr noundef nonnull align 8 dereferenceable(16) %15) #30
  br label %_ZNSt12__shared_ptrIN19OpenColorIO_v2_5dev14CDLParsingInfoELN9__gnu_cxx12_Lock_policyE2EED2Ev.exit

29:                                               ; preds = %16
  %30 = load i8, ptr @__libc_single_threaded, align 1, !tbaa !33
  %.not.i.i.i = icmp eq i8 %30, 0
  br i1 %.not.i.i.i, label %33, label %31

31:                                               ; preds = %29
  %32 = add nsw i32 %20, -1
  store i32 %32, ptr %17, align 4, !tbaa !42
  br label %_ZN9__gnu_cxx27__exchange_and_add_dispatchEPii.exit.i.i.i

33:                                               ; preds = %29
  %34 = atomicrmw volatile add ptr %17, i32 -1 acq_rel, align 4
  br label %_ZN9__gnu_cxx27__exchange_and_add_dispatchEPii.exit.i.i.i

_ZN9__gnu_cxx27__exchange_and_add_dispatchEPii.exit.i.i.i: ; preds = %33, %31
  %.0.i.i.i.i = phi i32 [ %20, %31 ], [ %34, %33 ]
  %35 = icmp eq i32 %.0.i.i.i.i, 1
  br i1 %35, label %36, label %_ZNSt12__shared_ptrIN19OpenColorIO_v2_5dev14CDLParsingInfoELN9__gnu_cxx12_Lock_policyE2EED2Ev.exit, !prof !43

36:                                               ; preds = %_ZN9__gnu_cxx27__exchange_and_add_dispatchEPii.exit.i.i.i
  tail call void @_ZNSt16_Sp_counted_baseILN9__gnu_cxx12_Lock_policyE2EE24_M_release_last_use_coldEv(ptr noundef nonnull align 8 dereferenceable(16) %15) #30
  br label %_ZNSt12__shared_ptrIN19OpenColorIO_v2_5dev14CDLParsingInfoELN9__gnu_cxx12_Lock_policyE2EED2Ev.exit

_ZNSt12__shared_ptrIN19OpenColorIO_v2_5dev14CDLParsingInfoELN9__gnu_cxx12_Lock_policyE2EED2Ev.exit: ; preds = %_ZNSt7__cxx1112basic_stringIcSt11char_traitsIcESaIcEED2Ev.exit, %21, %_ZN9__gnu_cxx27__exchange_and_add_dispatchEPii.exit.i.i.i, %36
  %37 = getelementptr inbounds nuw i8, ptr %0, i64 8
  tail call void @_ZN19OpenColorIO_v2_5dev21XmlReaderElementStackD1Ev(ptr noundef nonnull align 8 dereferenceable(32) %37) #30
  ret void

38:                                               ; preds = %3, %1
  %39 = landingpad { ptr, i32 }
          catch ptr null
  %40 = extractvalue { ptr, i32 } %39, 0
  tail call void @__clang_call_terminate(ptr %40) #32
  unreachable
}